; Function Attrs: mustprogress nofree norecurse nosync nounwind willreturn memory(argmem: readwrite) uwtable
define internal void @_ZN12_GLOBAL__N_133AvailableLocalesStringEnumeration5resetER10UErrorCode(ptr noundef nonnull writeonly align 8 captures(none) dereferenceable(124) %0, ptr noundef nonnull readonly align 4 captures(none) dereferenceable(4) %1) unnamed_addr #13 align 2 {
  %3 = load i32, ptr %1, align 4, !tbaa !22
  %4 = icmp slt i32 %3, 1
  br i1 %4, label %5, label %7

5:                                                ; preds = %2
  %6 = getelementptr inbounds nuw i8, ptr %0, i64 120
  store i32 0, ptr %6, align 8, !tbaa !37
  br label %7

7:                                                ; preds = %2, %5
  ret void
}